target datalayout = "e-m:e-p270:32:32-p271:32:32-p272:64:64-i64:64-i128:128-f80:128-n8:16:32:64-S128"
target triple = "x86_64-pc-linux-gnu"

%"class.cv::utils::trace::details::Region" = type <{ ptr, i32, [4 x i8] }>

; Function Attrs: mustprogress nounwind uwtable
define internal noundef zeroext i16 @_ZN2cvL13saturate_castItEET_i(i32 noundef %0) #2 {
  %2 = alloca i32, align 4
  store i32 %0, ptr %2, align 4
  %3 = load i32, ptr %2, align 4
  %4 = icmp ule i32 %3, 65535
  br i1 %4, label %5, label %7

5:                                                ; preds = %1
  %6 = load i32, ptr %2, align 4
  br label %11

7:                                                ; preds = %1
  %8 = load i32, ptr %2, align 4
  %9 = icmp sgt i32 %8, 0
  %10 = select i1 %9, i32 65535, i32 0
  br label %11

11:                                               ; preds = %7, %5
  %12 = phi i32 [ %6, %5 ], [ %10, %7 ]
  %13 = trunc i32 %12 to i16
  ret i16 %13
}

; Function Attrs: mustprogress uwtable
define internal noundef i32 @_ZL7cvRoundf(float noundef %0) #7 {
  %2 = alloca <4 x float>, align 16
  %3 = alloca float, align 4
  %4 = alloca <4 x float>, align 16
  %5 = alloca float, align 4
  %6 = alloca <4 x float>, align 16
  store float %0, ptr %5, align 4
  %7 = load float, ptr %5, align 4
  store float %7, ptr %3, align 4
  %8 = load float, ptr %3, align 4
  %9 = insertelement <4 x float> poison, float %8, i32 0
  %10 = insertelement <4 x float> %9, float 0.000000e+00, i32 1
  %11 = insertelement <4 x float> %10, float 0.000000e+00, i32 2
  %12 = insertelement <4 x float> %11, float 0.000000e+00, i32 3
  store <4 x float> %12, ptr %4, align 16
  %13 = load <4 x float>, ptr %4, align 16
  store <4 x float> %13, ptr %6, align 16
  %14 = load <4 x float>, ptr %6, align 16
  store <4 x float> %14, ptr %2, align 16
  %15 = load <4 x float>, ptr %2, align 16
  %16 = call noundef i32 @llvm.x86.sse.cvtss2si(<4 x float> %15)
  ret i32 %16
}

; Function Attrs: mustprogress uwtable
define internal noundef zeroext i16 @_ZN2cvL13saturate_castItEET_f(float noundef %0) #0 {
  %2 = alloca float, align 4
  %3 = alloca i32, align 4
  store float %0, ptr %2, align 4
  %4 = load float, ptr %2, align 4
  %5 = call noundef i32 @_ZL7cvRoundf(float noundef %4)
  store i32 %5, ptr %3, align 4
  %6 = load i32, ptr %3, align 4
  %7 = call noundef zeroext i16 @_ZN2cvL13saturate_castItEET_i(i32 noundef %6)
  ret i16 %7
}

; Function Attrs: mustprogress nounwind uwtable
define linkonce_odr hidden void @_ZN2cv12hal_baseline9v_cleanupEv() #2 comdat {
  ret void
}

; Function Attrs: mustprogress uwtable
define internal noundef zeroext i16 @_ZN2cv3hal12cpu_baselineL5c_divIftEET0_T_S3_(float noundef %0, i16 noundef zeroext %1) #0 {
  %3 = alloca float, align 4
  %4 = alloca i16, align 2
  store float %0, ptr %3, align 4
  store i16 %1, ptr %4, align 2
  %5 = load float, ptr %3, align 4
  %6 = load i16, ptr %4, align 2
  %7 = zext i16 %6 to i32
  %8 = sitofp i32 %7 to float
  %9 = fdiv float %5, %8
  %10 = call noundef zeroext i16 @_ZN2cvL13saturate_castItEET_f(float noundef %9)
  ret i16 %10
}

; Function Attrs: mustprogress uwtable
define linkonce_odr hidden void @_ZN2cv12hal_baseline11simd128_cpp10vx_cleanupEv() #0 comdat {
  call void @_ZN2cv12hal_baseline9v_cleanupEv()
  ret void
}

; Function Attrs: mustprogress uwtable
define linkonce_odr hidden noundef zeroext i16 @_ZN2cv3hal12cpu_baseline8op_recipItfNS_12hal_baseline5v_regItLi8EEEE1rEtPKf(i16 noundef zeroext %0, ptr noundef %1) #0 comdat align 2 {
  %3 = alloca i16, align 2
  %4 = alloca ptr, align 8
  store i16 %0, ptr %3, align 2
  store ptr %1, ptr %4, align 8
  %5 = load i16, ptr %3, align 2
  %6 = zext i16 %5 to i32
  %7 = icmp ne i32 %6, 0
  br i1 %7, label %8, label %13

8:                                                ; preds = %2
  %9 = load ptr, ptr %4, align 8
  %10 = load float, ptr %9, align 4
  %11 = load i16, ptr %3, align 2
  %12 = call noundef zeroext i16 @_ZN2cv3hal12cpu_baselineL5c_divIftEET0_T_S3_(float noundef %10, i16 noundef zeroext %11)
  br label %14

13:                                               ; preds = %2
  br label %14

14:                                               ; preds = %13, %8
  %15 = phi i16 [ %12, %8 ], [ 0, %13 ]
  ret i16 %15
}

; Function Attrs: mustprogress uwtable
define internal void @_ZN2cv3hal12cpu_baselineL11scalar_loopINS1_8op_recipEtfNS_12hal_baseline5v_regItLi8EEEEEvPKT0_mPS7_miiPKT1_(ptr noundef %0, i64 noundef %1, ptr noundef %2, i64 noundef %3, i32 noundef %4, i32 noundef %5, ptr noundef %6) #0 {
  %8 = alloca ptr, align 8
  %9 = alloca i64, align 8
  %10 = alloca ptr, align 8
  %11 = alloca i64, align 8
  %12 = alloca i32, align 4
  %13 = alloca i32, align 4
  %14 = alloca ptr, align 8
  %15 = alloca i32, align 4
  store ptr %0, ptr %8, align 8
  store i64 %1, ptr %9, align 8
  store ptr %2, ptr %10, align 8
  store i64 %3, ptr %11, align 8
  store i32 %4, ptr %12, align 4
  store i32 %5, ptr %13, align 4
  store ptr %6, ptr %14, align 8
  %16 = load i64, ptr %9, align 8
  %17 = udiv i64 %16, 2
  store i64 %17, ptr %9, align 8
  %18 = load i64, ptr %11, align 8
  %19 = udiv i64 %18, 2
  store i64 %19, ptr %11, align 8
  br label %20

20:                                               ; preds = %45, %7
  %21 = load i32, ptr %13, align 4
  %22 = add nsw i32 %21, -1
  store i32 %22, ptr %13, align 4
  %23 = icmp ne i32 %21, 0
  br i1 %23, label %24, label %52

24:                                               ; preds = %20
  store i32 0, ptr %15, align 4
  br label %25

25:                                               ; preds = %41, %24
  %26 = load i32, ptr %15, align 4
  %27 = load i32, ptr %12, align 4
  %28 = icmp slt i32 %26, %27
  br i1 %28, label %29, label %44

29:                                               ; preds = %25
  %30 = load ptr, ptr %8, align 8
  %31 = load i32, ptr %15, align 4
  %32 = sext i32 %31 to i64
  %33 = getelementptr inbounds i16, ptr %30, i64 %32
  %34 = load i16, ptr %33, align 2
  %35 = load ptr, ptr %14, align 8
  %36 = call noundef zeroext i16 @_ZN2cv3hal12cpu_baseline8op_recipItfNS_12hal_baseline5v_regItLi8EEEE1rEtPKf(i16 noundef zeroext %34, ptr noundef %35)
  %37 = load ptr, ptr %10, align 8
  %38 = load i32, ptr %15, align 4
  %39 = sext i32 %38 to i64
  %40 = getelementptr inbounds i16, ptr %37, i64 %39
  store i16 %36, ptr %40, align 2
  br label %41

41:                                               ; preds = %29
  %42 = load i32, ptr %15, align 4
  %43 = add nsw i32 %42, 1
  store i32 %43, ptr %15, align 4
  br label %25, !llvm.loop !242

44:                                               ; preds = %25
  br label %45

45:                                               ; preds = %44
  %46 = load i64, ptr %9, align 8
  %47 = load ptr, ptr %8, align 8
  %48 = getelementptr inbounds i16, ptr %47, i64 %46
  store ptr %48, ptr %8, align 8
  %49 = load i64, ptr %11, align 8
  %50 = load ptr, ptr %10, align 8
  %51 = getelementptr inbounds i16, ptr %50, i64 %49
  store ptr %51, ptr %10, align 8
  br label %20, !llvm.loop !243

52:                                               ; preds = %20
  call void @_ZN2cv12hal_baseline11simd128_cpp10vx_cleanupEv()
  ret void
}

; Function Attrs: mustprogress nounwind uwtable
define linkonce_odr hidden void @_ZN2cv5utils5trace7details6RegionD2Ev(ptr noundef nonnull align 8 dereferenceable(12) %0) unnamed_addr #2 comdat align 2 personality ptr @__gxx_personality_v0 {
  %2 = alloca ptr, align 8
  store ptr %0, ptr %2, align 8
  %3 = load ptr, ptr %2, align 8
  %4 = getelementptr inbounds %"class.cv::utils::trace::details::Region", ptr %3, i32 0, i32 1
  %5 = load i32, ptr %4, align 8
  %6 = icmp ne i32 %5, 0
  br i1 %6, label %7, label %9

7:                                                ; preds = %1
  invoke void @_ZN2cv5utils5trace7details6Region7destroyEv(ptr noundef nonnull align 8 dereferenceable(12) %3)
          to label %8 unwind label %10

8:                                                ; preds = %7
  br label %9

9:                                                ; preds = %8, %1
  ret void

10:                                               ; preds = %7
  %11 = landingpad { ptr, i32 }
          catch ptr null
  %12 = extractvalue { ptr, i32 } %11, 0
  call void @__clang_call_terminate(ptr %12) #10
  unreachable
}

; Function Attrs: mustprogress uwtable
define internal void @_ZN2cv3hal12cpu_baselineL10recip_loopItNS_12hal_baseline5v_regItLi8EEEEEvPKT_mPS6_miiPKd(ptr noundef %0, i64 noundef %1, ptr noundef %2, i64 noundef %3, i32 noundef %4, i32 noundef %5, ptr noundef %6) #0 {
  %8 = alloca ptr, align 8
  %9 = alloca i64, align 8
  %10 = alloca ptr, align 8
  %11 = alloca i64, align 8
  %12 = alloca i32, align 4
  %13 = alloca i32, align 4
  %14 = alloca ptr, align 8
  %15 = alloca float, align 4
  store ptr %0, ptr %8, align 8
  store i64 %1, ptr %9, align 8
  store ptr %2, ptr %10, align 8
  store i64 %3, ptr %11, align 8
  store i32 %4, ptr %12, align 4
  store i32 %5, ptr %13, align 4
  store ptr %6, ptr %14, align 8
  %16 = load ptr, ptr %14, align 8
  %17 = load double, ptr %16, align 8
  %18 = fptrunc double %17 to float
  store float %18, ptr %15, align 4
  %19 = load ptr, ptr %8, align 8
  %20 = load i64, ptr %9, align 8
  %21 = load ptr, ptr %10, align 8
  %22 = load i64, ptr %11, align 8
  %23 = load i32, ptr %12, align 4
  %24 = load i32, ptr %13, align 4
  call void @_ZN2cv3hal12cpu_baselineL11scalar_loopINS1_8op_recipEtfNS_12hal_baseline5v_regItLi8EEEEEvPKT0_mPS7_miiPKT1_(ptr noundef %19, i64 noundef %20, ptr noundef %21, i64 noundef %22, i32 noundef %23, i32 noundef %24, ptr noundef %15)
  ret void
}

; Function Attrs: mustprogress uwtable
define hidden void @_ZN2cv3hal12cpu_baseline8recip16uEPKtmPtmiiPKd(ptr noundef %0, i64 noundef %1, ptr noundef %2, i64 noundef %3, i32 noundef %4, i32 noundef %5, ptr noundef %6) #0 personality ptr @__gxx_personality_v0 {
  %8 = alloca ptr, align 8
  %9 = alloca i64, align 8
  %10 = alloca ptr, align 8
  %11 = alloca i64, align 8
  %12 = alloca i32, align 4
  %13 = alloca i32, align 4
  %14 = alloca ptr, align 8
  %15 = alloca %"class.cv::utils::trace::details::Region", align 8
  %16 = alloca ptr, align 8
  %17 = alloca i32, align 4
  store ptr %0, ptr %8, align 8
  store i64 %1, ptr %9, align 8
  store ptr %2, ptr %10, align 8
  store i64 %3, ptr %11, align 8
  store i32 %4, ptr %12, align 4
  store i32 %5, ptr %13, align 4
  store ptr %6, ptr %14, align 8
  call void @_ZN2cv5utils5trace7details6RegionC1ERKNS3_21LocationStaticStorageE(ptr noundef nonnull align 8 dereferenceable(12) %15, ptr noundef nonnull align 8 dereferenceable(32) @_ZZN2cv3hal12cpu_baseline8recip16uEPKtmPtmiiPKdE26__cv_trace_location_fn1927)
  %18 = load ptr, ptr %8, align 8
  %19 = load i64, ptr %9, align 8
  %20 = load ptr, ptr %10, align 8
  %21 = load i64, ptr %11, align 8
  %22 = load i32, ptr %12, align 4
  %23 = load i32, ptr %13, align 4
  %24 = load ptr, ptr %14, align 8
  invoke void @_ZN2cv3hal12cpu_baselineL10recip_loopItNS_12hal_baseline5v_regItLi8EEEEEvPKT_mPS6_miiPKd(ptr noundef %18, i64 noundef %19, ptr noundef %20, i64 noundef %21, i32 noundef %22, i32 noundef %23, ptr noundef %24)
          to label %25 unwind label %26

25:                                               ; preds = %7
  call void @_ZN2cv5utils5trace7details6RegionD2Ev(ptr noundef nonnull align 8 dereferenceable(12) %15) #9
  ret void

26:                                               ; preds = %7
  %27 = landingpad { ptr, i32 }
          cleanup
  %28 = extractvalue { ptr, i32 } %27, 0
  store ptr %28, ptr %16, align 8
  %29 = extractvalue { ptr, i32 } %27, 1
  store i32 %29, ptr %17, align 4
  call void @_ZN2cv5utils5trace7details6RegionD2Ev(ptr noundef nonnull align 8 dereferenceable(12) %15) #9
  br label %30

30:                                               ; preds = %26
  %31 = load ptr, ptr %16, align 8
  %32 = load i32, ptr %17, align 4
  %33 = insertvalue { ptr, i32 } poison, ptr %31, 0
  %34 = insertvalue { ptr, i32 } %33, i32 %32, 1
  resume { ptr, i32 } %34
}