; Function Attrs: mustprogress uwtable
define hidden void @_ZN2cv3hal12cpu_baseline8recip16uEPKtmPtmiiPKd(ptr nocapture noundef readonly %0, i64 noundef %1, ptr nocapture noundef writeonly %2, i64 noundef %3, i32 noundef %4, i32 noundef %5, ptr nocapture noundef readonly %6) local_unnamed_addr #3 personality ptr @__gxx_personality_v0 {
  %8 = alloca %"class.cv::utils::trace::details::Region", align 8
  call void @_ZN2cv5utils5trace7details6RegionC1ERKNS3_21LocationStaticStorageE(ptr noundef nonnull align 8 dereferenceable(12) %8, ptr noundef nonnull align 8 dereferenceable(32) @_ZZN2cv3hal12cpu_baseline8recip16uEPKtmPtmiiPKdE26__cv_trace_location_fn1927)
  %.val = load double, ptr %6, align 8
  %9 = fptrunc double %.val to float
  %10 = lshr i64 %1, 1
  %11 = lshr i64 %3, 1
  %.not18.i.i = icmp ne i32 %5, 0
  %12 = icmp sgt i32 %4, 0
  %or.cond.i.i = and i1 %12, %.not18.i.i
  br i1 %or.cond.i.i, label %.preheader.us.preheader.i.i, label %_ZN2cv3hal12cpu_baselineL10recip_loopItNS_12hal_baseline5v_regItLi8EEEEEvPKT_mPS6_miiPKd.exit

.preheader.us.preheader.i.i:                      ; preds = %7
  %wide.trip.count.i.i = zext nneg i32 %4 to i64
  br label %.preheader.us.i.i

.preheader.us.i.i:                                ; preds = %._crit_edge.us.i.i, %.preheader.us.preheader.i.i
  %.in.i.i = phi i32 [ %26, %._crit_edge.us.i.i ], [ %5, %.preheader.us.preheader.i.i ]
  %.01420.us.i.i = phi ptr [ %27, %._crit_edge.us.i.i ], [ %0, %.preheader.us.preheader.i.i ]
  %.01619.us.i.i = phi ptr [ %28, %._crit_edge.us.i.i ], [ %2, %.preheader.us.preheader.i.i ]
  br label %13

13:                                               ; preds = %_ZN2cv3hal12cpu_baseline8op_recipItfNS_12hal_baseline5v_regItLi8EEEE1rEtPKf.exit.us.i.i, %.preheader.us.i.i
  %indvars.iv.i.i = phi i64 [ 0, %.preheader.us.i.i ], [ %indvars.iv.next.i.i, %_ZN2cv3hal12cpu_baseline8op_recipItfNS_12hal_baseline5v_regItLi8EEEE1rEtPKf.exit.us.i.i ]
  %14 = getelementptr inbounds i16, ptr %.01420.us.i.i, i64 %indvars.iv.i.i
  %15 = load i16, ptr %14, align 2
  %.not.i.us.i.i = icmp eq i16 %15, 0
  br i1 %.not.i.us.i.i, label %_ZN2cv3hal12cpu_baseline8op_recipItfNS_12hal_baseline5v_regItLi8EEEE1rEtPKf.exit.us.i.i, label %16

16:                                               ; preds = %13
  %17 = uitofp i16 %15 to float
  %18 = fdiv float %9, %17
  %19 = insertelement <4 x float> poison, float %18, i64 0
  %20 = call noundef i32 @llvm.x86.sse.cvtss2si(<4 x float> %19)
  %21 = call i32 @llvm.smax.i32(i32 %20, i32 0)
  %22 = call i32 @llvm.umin.i32(i32 %21, i32 65535)
  %23 = trunc nuw i32 %22 to i16
  br label %_ZN2cv3hal12cpu_baseline8op_recipItfNS_12hal_baseline5v_regItLi8EEEE1rEtPKf.exit.us.i.i

_ZN2cv3hal12cpu_baseline8op_recipItfNS_12hal_baseline5v_regItLi8EEEE1rEtPKf.exit.us.i.i: ; preds = %16, %13
  %24 = phi i16 [ %23, %16 ], [ 0, %13 ]
  %25 = getelementptr inbounds i16, ptr %.01619.us.i.i, i64 %indvars.iv.i.i
  store i16 %24, ptr %25, align 2
  %indvars.iv.next.i.i = add nuw nsw i64 %indvars.iv.i.i, 1
  %exitcond.not.i.i = icmp eq i64 %indvars.iv.next.i.i, %wide.trip.count.i.i
  br i1 %exitcond.not.i.i, label %._crit_edge.us.i.i, label %13, !llvm.loop !239

._crit_edge.us.i.i:                               ; preds = %_ZN2cv3hal12cpu_baseline8op_recipItfNS_12hal_baseline5v_regItLi8EEEE1rEtPKf.exit.us.i.i
  %26 = add nsw i32 %.in.i.i, -1
  %27 = getelementptr inbounds i16, ptr %.01420.us.i.i, i64 %10
  %28 = getelementptr inbounds i16, ptr %.01619.us.i.i, i64 %11
  %.not.us.i.i = icmp eq i32 %26, 0
  br i1 %.not.us.i.i, label %_ZN2cv3hal12cpu_baselineL10recip_loopItNS_12hal_baseline5v_regItLi8EEEEEvPKT_mPS6_miiPKd.exit, label %.preheader.us.i.i, !llvm.loop !240

_ZN2cv3hal12cpu_baselineL10recip_loopItNS_12hal_baseline5v_regItLi8EEEEEvPKT_mPS6_miiPKd.exit: ; preds = %._crit_edge.us.i.i, %7
  %29 = getelementptr inbounds i8, ptr %8, i64 8
  %30 = load i32, ptr %29, align 8
  %.not.i = icmp eq i32 %30, 0
  br i1 %.not.i, label %_ZN2cv5utils5trace7details6RegionD2Ev.exit, label %31

31:                                               ; preds = %_ZN2cv3hal12cpu_baselineL10recip_loopItNS_12hal_baseline5v_regItLi8EEEEEvPKT_mPS6_miiPKd.exit
  invoke void @_ZN2cv5utils5trace7details6Region7destroyEv(ptr noundef nonnull align 8 dereferenceable(12) %8)
          to label %_ZN2cv5utils5trace7details6RegionD2Ev.exit unwind label %32

32:                                               ; preds = %31
  %33 = landingpad { ptr, i32 }
          catch ptr null
  %34 = extractvalue { ptr, i32 } %33, 0
  call void @__clang_call_terminate(ptr %34) #11
  unreachable

_ZN2cv5utils5trace7details6RegionD2Ev.exit:       ; preds = %_ZN2cv3hal12cpu_baselineL10recip_loopItNS_12hal_baseline5v_regItLi8EEEEEvPKT_mPS6_miiPKd.exit, %31
  ret void
}